; ModuleID = '24/1574.c'
source_filename = "24/1574.c"
target datalayout = "e-m:e-p270:32:32-p271:32:32-p272:64:64-i64:64-f80:128-n8:16:32:64-S128"
target triple = "x86_64-pc-linux-gnu"

@.str = private unnamed_addr constant [3 x i8] c"%c\00", align 1
@.str.1 = private unnamed_addr constant [2 x i8] c"\0A\00", align 1

; Function Attrs: noinline nounwind uwtable
define dso_local i32 @main() #0 {
  %1 = alloca i32, align 4
  %2 = alloca [2000 x i8], align 16
  %3 = alloca [200 x i32], align 16
  %4 = alloca i32, align 4
  %5 = alloca i32, align 4
  %6 = alloca i32, align 4
  %7 = alloca i32, align 4
  %8 = alloca i32, align 4
  %9 = alloca i32, align 4
  %10 = alloca i32, align 4
  %11 = alloca i32, align 4
  %12 = alloca i32, align 4
  %13 = alloca i32, align 4
  store i32 0, i32* %1, align 4
  %14 = getelementptr inbounds [200 x i32], [200 x i32]* %3, i64 0, i64 0
  store i32 -1, i32* %14, align 16
  store i32 1, i32* %6, align 4
  store i32 0, i32* %7, align 4
  store i32 0, i32* %8, align 4
  store i32 100, i32* %9, align 4
  store i32 0, i32* %12, align 4
  %15 = getelementptr inbounds [2000 x i8], [2000 x i8]* %2, i64 0, i64 0
  %16 = call i32 (i8*, ...) bitcast (i32 (...)* @gets to i32 (i8*, ...)*)(i8* %15)
  %17 = getelementptr inbounds [2000 x i8], [2000 x i8]* %2, i64 0, i64 0
  %18 = call i64 @strlen(i8* %17) #3
  %19 = trunc i64 %18 to i32
  store i32 %19, i32* %5, align 4
  store i32 0, i32* %4, align 4
  br label %20

20:                                               ; preds = %55, %0
  %21 = load i32, i32* %4, align 4
  %22 = load i32, i32* %5, align 4
  %23 = icmp slt i32 %21, %22
  br i1 %23, label %24, label %58

24:                                               ; preds = %20
  %25 = load i32, i32* %4, align 4
  %26 = sext i32 %25 to i64
  %27 = getelementptr inbounds [2000 x i8], [2000 x i8]* %2, i64 0, i64 %26
  %28 = load i8, i8* %27, align 1
  %29 = sext i8 %28 to i32
  %30 = icmp eq i32 %29, 32
  br i1 %30, label %38, label %31

31:                                               ; preds = %24
  %32 = load i32, i32* %4, align 4
  %33 = sext i32 %32 to i64
  %34 = getelementptr inbounds [2000 x i8], [2000 x i8]* %2, i64 0, i64 %33
  %35 = load i8, i8* %34, align 1
  %36 = sext i8 %35 to i32
  %37 = icmp eq i32 %36, 44
  br i1 %37, label %38, label %54

38:                                               ; preds = %31, %24
  %39 = load i32, i32* %4, align 4
  %40 = load i32, i32* %6, align 4
  %41 = sext i32 %40 to i64
  %42 = getelementptr inbounds [200 x i32], [200 x i32]* %3, i64 0, i64 %41
  store i32 %39, i32* %42, align 4
  %43 = load i32, i32* %6, align 4
  %44 = sext i32 %43 to i64
  %45 = getelementptr inbounds [200 x i32], [200 x i32]* %3, i64 0, i64 %44
  %46 = load i32, i32* %45, align 4
  %47 = load i32, i32* %6, align 4
  %48 = sub nsw i32 %47, 1
  %49 = sext i32 %48 to i64
  %50 = getelementptr inbounds [200 x i32], [200 x i32]* %3, i64 0, i64 %49
  %51 = load i32, i32* %50, align 4
  %52 = sub nsw i32 %46, %51
  %53 = sub nsw i32 %52, 1
  store i32 %53, i32* %7, align 4
  br label %58

54:                                               ; preds = %31
  br label %55

55:                                               ; preds = %54
  %56 = load i32, i32* %4, align 4
  %57 = add nsw i32 %56, 1
  store i32 %57, i32* %4, align 4
  br label %20

58:                                               ; preds = %38, %20
  store i32 0, i32* %4, align 4
  br label %59

59:                                               ; preds = %130, %58
  %60 = load i32, i32* %4, align 4
  %61 = load i32, i32* %5, align 4
  %62 = icmp slt i32 %60, %61
  br i1 %62, label %63, label %133

63:                                               ; preds = %59
  %64 = load i32, i32* %4, align 4
  %65 = sext i32 %64 to i64
  %66 = getelementptr inbounds [2000 x i8], [2000 x i8]* %2, i64 0, i64 %65
  %67 = load i8, i8* %66, align 1
  %68 = sext i8 %67 to i32
  %69 = icmp eq i32 %68, 32
  br i1 %69, label %77, label %70

70:                                               ; preds = %63
  %71 = load i32, i32* %4, align 4
  %72 = sext i32 %71 to i64
  %73 = getelementptr inbounds [2000 x i8], [2000 x i8]* %2, i64 0, i64 %72
  %74 = load i8, i8* %73, align 1
  %75 = sext i8 %74 to i32
  %76 = icmp eq i32 %75, 44
  br i1 %76, label %77, label %129

77:                                               ; preds = %70, %63
  %78 = load i32, i32* %4, align 4
  %79 = load i32, i32* %6, align 4
  %80 = sext i32 %79 to i64
  %81 = getelementptr inbounds [200 x i32], [200 x i32]* %3, i64 0, i64 %80
  store i32 %78, i32* %81, align 4
  %82 = load i32, i32* %7, align 4
  %83 = load i32, i32* %6, align 4
  %84 = sext i32 %83 to i64
  %85 = getelementptr inbounds [200 x i32], [200 x i32]* %3, i64 0, i64 %84
  %86 = load i32, i32* %85, align 4
  %87 = load i32, i32* %6, align 4
  %88 = sub nsw i32 %87, 1
  %89 = sext i32 %88 to i64
  %90 = getelementptr inbounds [200 x i32], [200 x i32]* %3, i64 0, i64 %89
  %91 = load i32, i32* %90, align 4
  %92 = sub nsw i32 %86, %91
  %93 = sub nsw i32 %92, 1
  %94 = icmp ne i32 %82, %93
  br i1 %94, label %95, label %96

95:                                               ; preds = %77
  store i32 1, i32* %12, align 4
  br label %96

96:                                               ; preds = %95, %77
  %97 = load i32, i32* %6, align 4
  %98 = sext i32 %97 to i64
  %99 = getelementptr inbounds [200 x i32], [200 x i32]* %3, i64 0, i64 %98
  %100 = load i32, i32* %99, align 4
  %101 = load i32, i32* %6, align 4
  %102 = sub nsw i32 %101, 1
  %103 = sext i32 %102 to i64
  %104 = getelementptr inbounds [200 x i32], [200 x i32]* %3, i64 0, i64 %103
  %105 = load i32, i32* %104, align 4
  %106 = sub nsw i32 %100, %105
  %107 = sub nsw i32 %106, 1
  store i32 %107, i32* %7, align 4
  %108 = load i32, i32* %6, align 4
  %109 = add nsw i32 %108, 1
  store i32 %109, i32* %6, align 4
  %110 = load i32, i32* %7, align 4
  %111 = load i32, i32* %8, align 4
  %112 = icmp sgt i32 %110, %111
  br i1 %112, label %113, label %117

113:                                              ; preds = %96
  %114 = load i32, i32* %7, align 4
  store i32 %114, i32* %8, align 4
  %115 = load i32, i32* %6, align 4
  %116 = sub nsw i32 %115, 1
  store i32 %116, i32* %10, align 4
  br label %117

117:                                              ; preds = %113, %96
  %118 = load i32, i32* %7, align 4
  %119 = load i32, i32* %9, align 4
  %120 = icmp slt i32 %118, %119
  br i1 %120, label %121, label %128

121:                                              ; preds = %117
  %122 = load i32, i32* %7, align 4
  %123 = icmp ne i32 %122, 0
  br i1 %123, label %124, label %128

124:                                              ; preds = %121
  %125 = load i32, i32* %7, align 4
  store i32 %125, i32* %9, align 4
  %126 = load i32, i32* %6, align 4
  %127 = sub nsw i32 %126, 1
  store i32 %127, i32* %11, align 4
  br label %128

128:                                              ; preds = %124, %121, %117
  br label %129

129:                                              ; preds = %128, %70
  br label %130

130:                                              ; preds = %129
  %131 = load i32, i32* %4, align 4
  %132 = add nsw i32 %131, 1
  store i32 %132, i32* %4, align 4
  br label %59

133:                                              ; preds = %59
  %134 = load i32, i32* %4, align 4
  %135 = load i32, i32* %6, align 4
  %136 = sext i32 %135 to i64
  %137 = getelementptr inbounds [200 x i32], [200 x i32]* %3, i64 0, i64 %136
  store i32 %134, i32* %137, align 4
  %138 = load i32, i32* %7, align 4
  %139 = load i32, i32* %6, align 4
  %140 = sext i32 %139 to i64
  %141 = getelementptr inbounds [200 x i32], [200 x i32]* %3, i64 0, i64 %140
  %142 = load i32, i32* %141, align 4
  %143 = load i32, i32* %6, align 4
  %144 = sub nsw i32 %143, 1
  %145 = sext i32 %144 to i64
  %146 = getelementptr inbounds [200 x i32], [200 x i32]* %3, i64 0, i64 %145
  %147 = load i32, i32* %146, align 4
  %148 = sub nsw i32 %142, %147
  %149 = sub nsw i32 %148, 1
  %150 = icmp ne i32 %138, %149
  br i1 %150, label %151, label %152

151:                                              ; preds = %133
  store i32 1, i32* %12, align 4
  br label %152

152:                                              ; preds = %151, %133
  %153 = load i32, i32* %6, align 4
  %154 = sext i32 %153 to i64
  %155 = getelementptr inbounds [200 x i32], [200 x i32]* %3, i64 0, i64 %154
  %156 = load i32, i32* %155, align 4
  %157 = load i32, i32* %6, align 4
  %158 = sub nsw i32 %157, 1
  %159 = sext i32 %158 to i64
  %160 = getelementptr inbounds [200 x i32], [200 x i32]* %3, i64 0, i64 %159
  %161 = load i32, i32* %160, align 4
  %162 = sub nsw i32 %156, %161
  %163 = sub nsw i32 %162, 1
  store i32 %163, i32* %7, align 4
  %164 = load i32, i32* %7, align 4
  %165 = load i32, i32* %8, align 4
  %166 = icmp sgt i32 %164, %165
  br i1 %166, label %167, label %170

167:                                              ; preds = %152
  %168 = load i32, i32* %7, align 4
  store i32 %168, i32* %8, align 4
  %169 = load i32, i32* %6, align 4
  store i32 %169, i32* %10, align 4
  br label %170

170:                                              ; preds = %167, %152
  %171 = load i32, i32* %7, align 4
  %172 = load i32, i32* %9, align 4
  %173 = icmp slt i32 %171, %172
  br i1 %173, label %174, label %180

174:                                              ; preds = %170
  %175 = load i32, i32* %7, align 4
  %176 = icmp ne i32 %175, 0
  br i1 %176, label %177, label %180

177:                                              ; preds = %174
  %178 = load i32, i32* %7, align 4
  store i32 %178, i32* %9, align 4
  %179 = load i32, i32* %6, align 4
  store i32 %179, i32* %11, align 4
  br label %180

180:                                              ; preds = %177, %174, %170
  %181 = load i32, i32* %12, align 4
  %182 = icmp eq i32 %181, 0
  br i1 %182, label %183, label %209

183:                                              ; preds = %180
  store i32 0, i32* %13, align 4
  br label %184

184:                                              ; preds = %205, %183
  %185 = load i32, i32* %13, align 4
  %186 = icmp slt i32 %185, 2
  br i1 %186, label %187, label %208

187:                                              ; preds = %184
  store i32 0, i32* %4, align 4
  br label %188

188:                                              ; preds = %200, %187
  %189 = load i32, i32* %4, align 4
  %190 = getelementptr inbounds [200 x i32], [200 x i32]* %3, i64 0, i64 1
  %191 = load i32, i32* %190, align 4
  %192 = icmp slt i32 %189, %191
  br i1 %192, label %193, label %203

193:                                              ; preds = %188
  %194 = load i32, i32* %4, align 4
  %195 = sext i32 %194 to i64
  %196 = getelementptr inbounds [2000 x i8], [2000 x i8]* %2, i64 0, i64 %195
  %197 = load i8, i8* %196, align 1
  %198 = sext i8 %197 to i32
  %199 = call i32 (i8*, ...) @printf(i8* getelementptr inbounds ([3 x i8], [3 x i8]* @.str, i64 0, i64 0), i32 %198)
  br label %200

200:                                              ; preds = %193
  %201 = load i32, i32* %4, align 4
  %202 = add nsw i32 %201, 1
  store i32 %202, i32* %4, align 4
  br label %188

203:                                              ; preds = %188
  %204 = call i32 (i8*, ...) @printf(i8* getelementptr inbounds ([2 x i8], [2 x i8]* @.str.1, i64 0, i64 0))
  br label %205

205:                                              ; preds = %203
  %206 = load i32, i32* %13, align 4
  %207 = add nsw i32 %206, 1
  store i32 %207, i32* %13, align 4
  br label %184

208:                                              ; preds = %184
  br label %260

209:                                              ; preds = %180
  %210 = load i32, i32* %10, align 4
  %211 = sub nsw i32 %210, 1
  %212 = sext i32 %211 to i64
  %213 = getelementptr inbounds [200 x i32], [200 x i32]* %3, i64 0, i64 %212
  %214 = load i32, i32* %213, align 4
  %215 = add nsw i32 %214, 1
  store i32 %215, i32* %4, align 4
  br label %216

216:                                              ; preds = %230, %209
  %217 = load i32, i32* %4, align 4
  %218 = load i32, i32* %10, align 4
  %219 = sext i32 %218 to i64
  %220 = getelementptr inbounds [200 x i32], [200 x i32]* %3, i64 0, i64 %219
  %221 = load i32, i32* %220, align 4
  %222 = icmp slt i32 %217, %221
  br i1 %222, label %223, label %233

223:                                              ; preds = %216
  %224 = load i32, i32* %4, align 4
  %225 = sext i32 %224 to i64
  %226 = getelementptr inbounds [2000 x i8], [2000 x i8]* %2, i64 0, i64 %225
  %227 = load i8, i8* %226, align 1
  %228 = sext i8 %227 to i32
  %229 = call i32 (i8*, ...) @printf(i8* getelementptr inbounds ([3 x i8], [3 x i8]* @.str, i64 0, i64 0), i32 %228)
  br label %230

230:                                              ; preds = %223
  %231 = load i32, i32* %4, align 4
  %232 = add nsw i32 %231, 1
  store i32 %232, i32* %4, align 4
  br label %216

233:                                              ; preds = %216
  %234 = call i32 (i8*, ...) @printf(i8* getelementptr inbounds ([2 x i8], [2 x i8]* @.str.1, i64 0, i64 0))
  %235 = load i32, i32* %11, align 4
  %236 = sub nsw i32 %235, 1
  %237 = sext i32 %236 to i64
  %238 = getelementptr inbounds [200 x i32], [200 x i32]* %3, i64 0, i64 %237
  %239 = load i32, i32* %238, align 4
  %240 = add nsw i32 %239, 1
  store i32 %240, i32* %4, align 4
  br label %241

241:                                              ; preds = %255, %233
  %242 = load i32, i32* %4, align 4
  %243 = load i32, i32* %11, align 4
  %244 = sext i32 %243 to i64
  %245 = getelementptr inbounds [200 x i32], [200 x i32]* %3, i64 0, i64 %244
  %246 = load i32, i32* %245, align 4
  %247 = icmp slt i32 %242, %246
  br i1 %247, label %248, label %258

248:                                              ; preds = %241
  %249 = load i32, i32* %4, align 4
  %250 = sext i32 %249 to i64
  %251 = getelementptr inbounds [2000 x i8], [2000 x i8]* %2, i64 0, i64 %250
  %252 = load i8, i8* %251, align 1
  %253 = sext i8 %252 to i32
  %254 = call i32 (i8*, ...) @printf(i8* getelementptr inbounds ([3 x i8], [3 x i8]* @.str, i64 0, i64 0), i32 %253)
  br label %255

255:                                              ; preds = %248
  %256 = load i32, i32* %4, align 4
  %257 = add nsw i32 %256, 1
  store i32 %257, i32* %4, align 4
  br label %241

258:                                              ; preds = %241
  %259 = call i32 (i8*, ...) @printf(i8* getelementptr inbounds ([2 x i8], [2 x i8]* @.str.1, i64 0, i64 0))
  br label %260

260:                                              ; preds = %258, %208
  ret i32 0
}

declare dso_local i32 @gets(...) #1

; Function Attrs: nounwind readonly
declare dso_local i64 @strlen(i8*) #2

declare dso_local i32 @printf(i8*, ...) #1


!llvm.module.flags = !{!0}
!llvm.ident = !{!1}

!0 = !{i32 1, !"wchar_size", i32 4}
!1 = !{!"clang version 10.0.0-4ubuntu1 "}
